target datalayout = "e-m:e-p270:32:32-p271:32:32-p272:64:64-i64:64-i128:128-f80:128-n8:16:32:64-S128"
target triple = "x86_64-pc-linux-gnu"

%struct.SurfaceDataRasInfo = type { %struct.SurfaceDataBounds, ptr, i32, i32, i32, i32, ptr, ptr, ptr, ptr, ptr, ptr, i32, %union.anon.0 }
%struct.SurfaceDataBounds = type { i32, i32, i32, i32 }
%union.anon.0 = type { ptr, [56 x i8] }

; Function Attrs: nounwind uwtable
define hidden void @IntArgbBmToUshort555RgbXparOver(ptr noundef %0, ptr noundef %1, i32 noundef %2, i32 noundef %3, ptr noundef %4, ptr noundef %5, ptr noundef %6, ptr noundef %7) #1 {
  %9 = alloca ptr, align 8
  %10 = alloca ptr, align 8
  %11 = alloca i32, align 4
  %12 = alloca i32, align 4
  %13 = alloca ptr, align 8
  %14 = alloca ptr, align 8
  %15 = alloca ptr, align 8
  %16 = alloca ptr, align 8
  %17 = alloca ptr, align 8
  %18 = alloca ptr, align 8
  %19 = alloca i32, align 4
  %20 = alloca i32, align 4
  %21 = alloca i32, align 4
  %22 = alloca i32, align 4
  %23 = alloca i32, align 4
  store ptr %0, ptr %9, align 8
  store ptr %1, ptr %10, align 8
  store i32 %2, ptr %11, align 4
  store i32 %3, ptr %12, align 4
  store ptr %4, ptr %13, align 8
  store ptr %5, ptr %14, align 8
  store ptr %6, ptr %15, align 8
  store ptr %7, ptr %16, align 8
  br label %24

24:                                               ; preds = %8
  %25 = load ptr, ptr %9, align 8
  store ptr %25, ptr %17, align 8
  %26 = load ptr, ptr %10, align 8
  store ptr %26, ptr %18, align 8
  %27 = load ptr, ptr %13, align 8
  %28 = getelementptr inbounds %struct.SurfaceDataRasInfo, ptr %27, i32 0, i32 4
  %29 = load i32, ptr %28, align 8
  store i32 %29, ptr %19, align 4
  %30 = load ptr, ptr %14, align 8
  %31 = getelementptr inbounds %struct.SurfaceDataRasInfo, ptr %30, i32 0, i32 4
  %32 = load i32, ptr %31, align 8
  store i32 %32, ptr %20, align 4
  %33 = load i32, ptr %11, align 4
  %34 = mul i32 %33, 4
  %35 = load i32, ptr %19, align 4
  %36 = sub i32 %35, %34
  store i32 %36, ptr %19, align 4
  %37 = load i32, ptr %11, align 4
  %38 = mul i32 %37, 2
  %39 = load i32, ptr %20, align 4
  %40 = sub i32 %39, %38
  store i32 %40, ptr %20, align 4
  br label %41

41:                                               ; preds = %94, %24
  %42 = load i32, ptr %11, align 4
  store i32 %42, ptr %21, align 4
  br label %43

43:                                               ; preds = %77, %41
  br label %44

44:                                               ; preds = %43
  %45 = load ptr, ptr %17, align 8
  %46 = getelementptr inbounds i32, ptr %45, i64 0
  %47 = load i32, ptr %46, align 4
  store i32 %47, ptr %22, align 4
  %48 = load i32, ptr %22, align 4
  %49 = ashr i32 %48, 24
  %50 = icmp eq i32 %49, 0
  br i1 %50, label %67, label %51

51:                                               ; preds = %44
  %52 = load i32, ptr %22, align 4
  store i32 %52, ptr %23, align 4
  %53 = load i32, ptr %23, align 4
  %54 = ashr i32 %53, 9
  %55 = and i32 %54, 31744
  %56 = load i32, ptr %23, align 4
  %57 = ashr i32 %56, 6
  %58 = and i32 %57, 992
  %59 = or i32 %55, %58
  %60 = load i32, ptr %23, align 4
  %61 = ashr i32 %60, 3
  %62 = and i32 %61, 31
  %63 = or i32 %59, %62
  %64 = trunc i32 %63 to i16
  %65 = load ptr, ptr %18, align 8
  %66 = getelementptr inbounds i16, ptr %65, i64 0
  store i16 %64, ptr %66, align 2
  br label %67

67:                                               ; preds = %51, %44
  br label %68

68:                                               ; preds = %67
  %69 = load ptr, ptr %17, align 8
  %70 = ptrtoint ptr %69 to i64
  %71 = add nsw i64 %70, 4
  %72 = inttoptr i64 %71 to ptr
  store ptr %72, ptr %17, align 8
  %73 = load ptr, ptr %18, align 8
  %74 = ptrtoint ptr %73 to i64
  %75 = add nsw i64 %74, 2
  %76 = inttoptr i64 %75 to ptr
  store ptr %76, ptr %18, align 8
  br label %77

77:                                               ; preds = %68
  %78 = load i32, ptr %21, align 4
  %79 = add i32 %78, -1
  store i32 %79, ptr %21, align 4
  %80 = icmp ugt i32 %79, 0
  br i1 %80, label %43, label %81, !llvm.loop !45

81:                                               ; preds = %77
  %82 = load ptr, ptr %17, align 8
  %83 = ptrtoint ptr %82 to i64
  %84 = load i32, ptr %19, align 4
  %85 = sext i32 %84 to i64
  %86 = add nsw i64 %83, %85
  %87 = inttoptr i64 %86 to ptr
  store ptr %87, ptr %17, align 8
  %88 = load ptr, ptr %18, align 8
  %89 = ptrtoint ptr %88 to i64
  %90 = load i32, ptr %20, align 4
  %91 = sext i32 %90 to i64
  %92 = add nsw i64 %89, %91
  %93 = inttoptr i64 %92 to ptr
  store ptr %93, ptr %18, align 8
  br label %94

94:                                               ; preds = %81
  %95 = load i32, ptr %12, align 4
  %96 = add i32 %95, -1
  store i32 %96, ptr %12, align 4
  %97 = icmp ugt i32 %96, 0
  br i1 %97, label %41, label %98, !llvm.loop !46

98:                                               ; preds = %94
  br label %99

99:                                               ; preds = %98
  ret void
}