; Function Attrs: nofree norecurse nosync nounwind memory(readwrite, inaccessiblemem: none) uwtable
define hidden void @IntArgbBmToUshort555RgbXparOver(ptr noundef %0, ptr noundef %1, i32 noundef %2, i32 noundef %3, ptr nocapture noundef readonly %4, ptr nocapture noundef readonly %5, ptr nocapture readnone %6, ptr nocapture readnone %7) #1 {
  %9 = getelementptr inbounds i8, ptr %4, i64 32
  %10 = load i32, ptr %9, align 8
  %11 = getelementptr inbounds i8, ptr %5, i64 32
  %12 = load i32, ptr %11, align 8
  %13 = shl i32 %2, 2
  %14 = sub i32 %10, %13
  %15 = shl i32 %2, 1
  %16 = sub i32 %12, %15
  %17 = sext i32 %14 to i64
  %18 = sext i32 %16 to i64
  br label %19

19:                                               ; preds = %41, %8
  %.025 = phi ptr [ %1, %8 ], [ %45, %41 ]
  %.023 = phi ptr [ %0, %8 ], [ %43, %41 ]
  %.0 = phi i32 [ %3, %8 ], [ %46, %41 ]
  br label %20

20:                                               ; preds = %33, %19
  %.126 = phi ptr [ %.025, %19 ], [ %39, %33 ]
  %.024 = phi i32 [ %2, %19 ], [ %40, %33 ]
  %.1 = phi ptr [ %.023, %19 ], [ %36, %33 ]
  %21 = load i32, ptr %.1, align 4
  %22 = icmp ult i32 %21, 16777216
  br i1 %22, label %33, label %23

23:                                               ; preds = %20
  %24 = lshr i32 %21, 9
  %25 = and i32 %24, 31744
  %26 = lshr i32 %21, 6
  %27 = and i32 %26, 992
  %28 = or disjoint i32 %25, %27
  %29 = lshr i32 %21, 3
  %30 = and i32 %29, 31
  %31 = or disjoint i32 %28, %30
  %32 = trunc nuw nsw i32 %31 to i16
  store i16 %32, ptr %.126, align 2
  br label %33

33:                                               ; preds = %20, %23
  %34 = ptrtoint ptr %.1 to i64
  %35 = add nsw i64 %34, 4
  %36 = inttoptr i64 %35 to ptr
  %37 = ptrtoint ptr %.126 to i64
  %38 = add nsw i64 %37, 2
  %39 = inttoptr i64 %38 to ptr
  %40 = add i32 %.024, -1
  %.not = icmp eq i32 %40, 0
  br i1 %.not, label %41, label %20, !llvm.loop !41

41:                                               ; preds = %33
  %42 = add nsw i64 %35, %17
  %43 = inttoptr i64 %42 to ptr
  %44 = add nsw i64 %38, %18
  %45 = inttoptr i64 %44 to ptr
  %46 = add i32 %.0, -1
  %.not29 = icmp eq i32 %46, 0
  br i1 %.not29, label %47, label %19, !llvm.loop !42

47:                                               ; preds = %41
  ret void
}